ARM GAS  C:\Users\XC\AppData\Local\Temp\cckm9vZS.s 			page 1


   1              		.cpu cortex-m7
   2              		.eabi_attribute 28, 1
   3              		.eabi_attribute 20, 1
   4              		.eabi_attribute 21, 1
   5              		.eabi_attribute 23, 3
   6              		.eabi_attribute 24, 1
   7              		.eabi_attribute 25, 1
   8              		.eabi_attribute 26, 1
   9              		.eabi_attribute 30, 1
  10              		.eabi_attribute 34, 1
  11              		.eabi_attribute 18, 4
  12              		.file	"main.c"
  13              		.text
  14              	.Ltext0:
  15              		.cfi_sections	.debug_frame
  16              		.section	.text.MX_GPIO_Init,"ax",%progbits
  17              		.align	1
  18              		.arch armv7e-m
  19              		.syntax unified
  20              		.thumb
  21              		.thumb_func
  22              		.fpu fpv5-d16
  24              	MX_GPIO_Init:
  25              	.LFB146:
  26              		.file 1 "Core/Src/main.c"
   1:Core/Src/main.c **** /* USER CODE BEGIN Header */
   2:Core/Src/main.c **** /**
   3:Core/Src/main.c ****   ******************************************************************************
   4:Core/Src/main.c ****   * @file           : main.c
   5:Core/Src/main.c ****   * @brief          : Main program body
   6:Core/Src/main.c ****   ******************************************************************************
   7:Core/Src/main.c ****   * @attention
   8:Core/Src/main.c ****   *
   9:Core/Src/main.c ****   * <h2><center>&copy; Copyright (c) 2021 STMicroelectronics.
  10:Core/Src/main.c ****   * All rights reserved.</center></h2>
  11:Core/Src/main.c ****   *
  12:Core/Src/main.c ****   * This software component is licensed by ST under BSD 3-Clause license,
  13:Core/Src/main.c ****   * the "License"; You may not use this file except in compliance with the
  14:Core/Src/main.c ****   * License. You may obtain a copy of the License at:
  15:Core/Src/main.c ****   *                        opensource.org/licenses/BSD-3-Clause
  16:Core/Src/main.c ****   *
  17:Core/Src/main.c ****   ******************************************************************************
  18:Core/Src/main.c ****   */
  19:Core/Src/main.c **** /* USER CODE END Header */
  20:Core/Src/main.c **** /* Includes ------------------------------------------------------------------*/
  21:Core/Src/main.c **** #include "main.h"
  22:Core/Src/main.c **** 
  23:Core/Src/main.c **** /* Private includes ----------------------------------------------------------*/
  24:Core/Src/main.c **** /* USER CODE BEGIN Includes */
  25:Core/Src/main.c **** 
  26:Core/Src/main.c **** /* USER CODE END Includes */
  27:Core/Src/main.c **** 
  28:Core/Src/main.c **** /* Private typedef -----------------------------------------------------------*/
  29:Core/Src/main.c **** /* USER CODE BEGIN PTD */
  30:Core/Src/main.c **** 
  31:Core/Src/main.c **** /* USER CODE END PTD */
  32:Core/Src/main.c **** 
ARM GAS  C:\Users\XC\AppData\Local\Temp\cckm9vZS.s 			page 2


  33:Core/Src/main.c **** /* Private define ------------------------------------------------------------*/
  34:Core/Src/main.c **** /* USER CODE BEGIN PD */
  35:Core/Src/main.c **** /* USER CODE END PD */
  36:Core/Src/main.c **** 
  37:Core/Src/main.c **** /* Private macro -------------------------------------------------------------*/
  38:Core/Src/main.c **** /* USER CODE BEGIN PM */
  39:Core/Src/main.c **** 
  40:Core/Src/main.c **** /* USER CODE END PM */
  41:Core/Src/main.c **** 
  42:Core/Src/main.c **** /* Private variables ---------------------------------------------------------*/
  43:Core/Src/main.c **** 
  44:Core/Src/main.c **** /* USER CODE BEGIN PV */
  45:Core/Src/main.c **** 
  46:Core/Src/main.c **** /* USER CODE END PV */
  47:Core/Src/main.c **** 
  48:Core/Src/main.c **** /* Private function prototypes -----------------------------------------------*/
  49:Core/Src/main.c **** void SystemClock_Config(void);
  50:Core/Src/main.c **** static void MX_GPIO_Init(void);
  51:Core/Src/main.c **** /* USER CODE BEGIN PFP */
  52:Core/Src/main.c **** 
  53:Core/Src/main.c **** /* USER CODE END PFP */
  54:Core/Src/main.c **** 
  55:Core/Src/main.c **** /* Private user code ---------------------------------------------------------*/
  56:Core/Src/main.c **** /* USER CODE BEGIN 0 */
  57:Core/Src/main.c **** 
  58:Core/Src/main.c **** /* USER CODE END 0 */
  59:Core/Src/main.c **** 
  60:Core/Src/main.c **** /**
  61:Core/Src/main.c ****   * @brief  The application entry point.
  62:Core/Src/main.c ****   * @retval int
  63:Core/Src/main.c ****   */
  64:Core/Src/main.c **** int main(void)
  65:Core/Src/main.c **** {
  66:Core/Src/main.c ****   /* USER CODE BEGIN 1 */
  67:Core/Src/main.c **** 
  68:Core/Src/main.c ****   /* USER CODE END 1 */
  69:Core/Src/main.c **** 
  70:Core/Src/main.c ****   /* MCU Configuration--------------------------------------------------------*/
  71:Core/Src/main.c **** 
  72:Core/Src/main.c ****   /* Reset of all peripherals, Initializes the Flash interface and the Systick. */
  73:Core/Src/main.c ****   HAL_Init();
  74:Core/Src/main.c **** 
  75:Core/Src/main.c ****   /* USER CODE BEGIN Init */
  76:Core/Src/main.c **** 
  77:Core/Src/main.c ****   /* USER CODE END Init */
  78:Core/Src/main.c **** 
  79:Core/Src/main.c ****   /* Configure the system clock */
  80:Core/Src/main.c ****   SystemClock_Config();
  81:Core/Src/main.c **** 
  82:Core/Src/main.c ****   /* USER CODE BEGIN SysInit */
  83:Core/Src/main.c **** 
  84:Core/Src/main.c ****   /* USER CODE END SysInit */
  85:Core/Src/main.c **** 
  86:Core/Src/main.c ****   /* Initialize all configured peripherals */
  87:Core/Src/main.c ****   MX_GPIO_Init();
  88:Core/Src/main.c ****   /* USER CODE BEGIN 2 */
  89:Core/Src/main.c **** 
ARM GAS  C:\Users\XC\AppData\Local\Temp\cckm9vZS.s 			page 3


  90:Core/Src/main.c ****   /* USER CODE END 2 */
  91:Core/Src/main.c **** 
  92:Core/Src/main.c ****   /* Infinite loop */
  93:Core/Src/main.c ****   /* USER CODE BEGIN WHILE */
  94:Core/Src/main.c ****   while (1)
  95:Core/Src/main.c ****   {
  96:Core/Src/main.c ****     /* USER CODE END WHILE */
  97:Core/Src/main.c ****     HAL_Delay(500);
  98:Core/Src/main.c **** 	HAL_GPIO_TogglePin(GPIOE,GPIO_PIN_6);
  99:Core/Src/main.c ****     /* USER CODE BEGIN 3 */
 100:Core/Src/main.c ****   }
 101:Core/Src/main.c ****   /* USER CODE END 3 */
 102:Core/Src/main.c **** }
 103:Core/Src/main.c **** 
 104:Core/Src/main.c **** /**
 105:Core/Src/main.c ****   * @brief System Clock Configuration
 106:Core/Src/main.c ****   * @retval None
 107:Core/Src/main.c ****   */
 108:Core/Src/main.c **** void SystemClock_Config(void)
 109:Core/Src/main.c **** {
 110:Core/Src/main.c ****   RCC_OscInitTypeDef RCC_OscInitStruct = {0};
 111:Core/Src/main.c ****   RCC_ClkInitTypeDef RCC_ClkInitStruct = {0};
 112:Core/Src/main.c **** 
 113:Core/Src/main.c ****   /** Supply configuration update enable
 114:Core/Src/main.c ****   */
 115:Core/Src/main.c ****   HAL_PWREx_ConfigSupply(PWR_LDO_SUPPLY);
 116:Core/Src/main.c ****   /** Configure the main internal regulator output voltage
 117:Core/Src/main.c ****   */
 118:Core/Src/main.c ****   __HAL_PWR_VOLTAGESCALING_CONFIG(PWR_REGULATOR_VOLTAGE_SCALE1);
 119:Core/Src/main.c **** 
 120:Core/Src/main.c ****   while(!__HAL_PWR_GET_FLAG(PWR_FLAG_VOSRDY)) {}
 121:Core/Src/main.c ****   /** Initializes the RCC Oscillators according to the specified parameters
 122:Core/Src/main.c ****   * in the RCC_OscInitTypeDef structure.
 123:Core/Src/main.c ****   */
 124:Core/Src/main.c ****   RCC_OscInitStruct.OscillatorType = RCC_OSCILLATORTYPE_HSI;
 125:Core/Src/main.c ****   RCC_OscInitStruct.HSIState = RCC_HSI_DIV1;
 126:Core/Src/main.c ****   RCC_OscInitStruct.HSICalibrationValue = RCC_HSICALIBRATION_DEFAULT;
 127:Core/Src/main.c ****   RCC_OscInitStruct.PLL.PLLState = RCC_PLL_ON;
 128:Core/Src/main.c ****   RCC_OscInitStruct.PLL.PLLSource = RCC_PLLSOURCE_HSI;
 129:Core/Src/main.c ****   RCC_OscInitStruct.PLL.PLLM = 4;
 130:Core/Src/main.c ****   RCC_OscInitStruct.PLL.PLLN = 50;
 131:Core/Src/main.c ****   RCC_OscInitStruct.PLL.PLLP = 2;
 132:Core/Src/main.c ****   RCC_OscInitStruct.PLL.PLLQ = 2;
 133:Core/Src/main.c ****   RCC_OscInitStruct.PLL.PLLR = 2;
 134:Core/Src/main.c ****   RCC_OscInitStruct.PLL.PLLRGE = RCC_PLL1VCIRANGE_3;
 135:Core/Src/main.c ****   RCC_OscInitStruct.PLL.PLLVCOSEL = RCC_PLL1VCOWIDE;
 136:Core/Src/main.c ****   RCC_OscInitStruct.PLL.PLLFRACN = 0;
 137:Core/Src/main.c ****   if (HAL_RCC_OscConfig(&RCC_OscInitStruct) != HAL_OK)
 138:Core/Src/main.c ****   {
 139:Core/Src/main.c ****     Error_Handler();
 140:Core/Src/main.c ****   }
 141:Core/Src/main.c ****   /** Initializes the CPU, AHB and APB buses clocks
 142:Core/Src/main.c ****   */
 143:Core/Src/main.c ****   RCC_ClkInitStruct.ClockType = RCC_CLOCKTYPE_HCLK|RCC_CLOCKTYPE_SYSCLK
 144:Core/Src/main.c ****                               |RCC_CLOCKTYPE_PCLK1|RCC_CLOCKTYPE_PCLK2
 145:Core/Src/main.c ****                               |RCC_CLOCKTYPE_D3PCLK1|RCC_CLOCKTYPE_D1PCLK1;
 146:Core/Src/main.c ****   RCC_ClkInitStruct.SYSCLKSource = RCC_SYSCLKSOURCE_PLLCLK;
ARM GAS  C:\Users\XC\AppData\Local\Temp\cckm9vZS.s 			page 4


 147:Core/Src/main.c ****   RCC_ClkInitStruct.SYSCLKDivider = RCC_SYSCLK_DIV1;
 148:Core/Src/main.c ****   RCC_ClkInitStruct.AHBCLKDivider = RCC_HCLK_DIV2;
 149:Core/Src/main.c ****   RCC_ClkInitStruct.APB3CLKDivider = RCC_APB3_DIV2;
 150:Core/Src/main.c ****   RCC_ClkInitStruct.APB1CLKDivider = RCC_APB1_DIV2;
 151:Core/Src/main.c ****   RCC_ClkInitStruct.APB2CLKDivider = RCC_APB2_DIV2;
 152:Core/Src/main.c ****   RCC_ClkInitStruct.APB4CLKDivider = RCC_APB4_DIV2;
 153:Core/Src/main.c **** 
 154:Core/Src/main.c ****   if (HAL_RCC_ClockConfig(&RCC_ClkInitStruct, FLASH_LATENCY_2) != HAL_OK)
 155:Core/Src/main.c ****   {
 156:Core/Src/main.c ****     Error_Handler();
 157:Core/Src/main.c ****   }
 158:Core/Src/main.c **** }
 159:Core/Src/main.c **** 
 160:Core/Src/main.c **** /**
 161:Core/Src/main.c ****   * @brief GPIO Initialization Function
 162:Core/Src/main.c ****   * @param None
 163:Core/Src/main.c ****   * @retval None
 164:Core/Src/main.c ****   */
 165:Core/Src/main.c **** static void MX_GPIO_Init(void)
 166:Core/Src/main.c **** {
  27              		.loc 1 166 1 view -0
  28              		.cfi_startproc
  29              		@ args = 0, pretend = 0, frame = 24
  30              		@ frame_needed = 0, uses_anonymous_args = 0
  31 0000 30B5     		push	{r4, r5, lr}
  32              	.LCFI0:
  33              		.cfi_def_cfa_offset 12
  34              		.cfi_offset 4, -12
  35              		.cfi_offset 5, -8
  36              		.cfi_offset 14, -4
  37 0002 87B0     		sub	sp, sp, #28
  38              	.LCFI1:
  39              		.cfi_def_cfa_offset 40
 167:Core/Src/main.c ****   GPIO_InitTypeDef GPIO_InitStruct = {0};
  40              		.loc 1 167 3 view .LVU1
  41              		.loc 1 167 20 is_stmt 0 view .LVU2
  42 0004 0024     		movs	r4, #0
  43 0006 0194     		str	r4, [sp, #4]
  44 0008 0294     		str	r4, [sp, #8]
  45 000a 0394     		str	r4, [sp, #12]
  46 000c 0494     		str	r4, [sp, #16]
  47 000e 0594     		str	r4, [sp, #20]
 168:Core/Src/main.c **** 
 169:Core/Src/main.c ****   /* GPIO Ports Clock Enable */
 170:Core/Src/main.c ****   __HAL_RCC_GPIOE_CLK_ENABLE();
  48              		.loc 1 170 3 is_stmt 1 view .LVU3
  49              	.LBB4:
  50              		.loc 1 170 3 view .LVU4
  51              		.loc 1 170 3 view .LVU5
  52 0010 0F4B     		ldr	r3, .L3
  53 0012 D3F8E020 		ldr	r2, [r3, #224]
  54 0016 42F01002 		orr	r2, r2, #16
  55 001a C3F8E020 		str	r2, [r3, #224]
  56              		.loc 1 170 3 view .LVU6
  57 001e D3F8E030 		ldr	r3, [r3, #224]
  58 0022 03F01003 		and	r3, r3, #16
  59 0026 0093     		str	r3, [sp]
ARM GAS  C:\Users\XC\AppData\Local\Temp\cckm9vZS.s 			page 5


  60              		.loc 1 170 3 view .LVU7
  61 0028 009B     		ldr	r3, [sp]
  62              	.LBE4:
  63              		.loc 1 170 3 view .LVU8
 171:Core/Src/main.c **** 
 172:Core/Src/main.c ****   /*Configure GPIO pin Output Level */
 173:Core/Src/main.c ****   HAL_GPIO_WritePin(GPIOE, GPIO_PIN_5|GPIO_PIN_6, GPIO_PIN_SET);
  64              		.loc 1 173 3 view .LVU9
  65 002a 0A4D     		ldr	r5, .L3+4
  66 002c 0122     		movs	r2, #1
  67 002e 6021     		movs	r1, #96
  68 0030 2846     		mov	r0, r5
  69 0032 FFF7FEFF 		bl	HAL_GPIO_WritePin
  70              	.LVL0:
 174:Core/Src/main.c **** 
 175:Core/Src/main.c ****   /*Configure GPIO pins : PE5 PE6 */
 176:Core/Src/main.c ****   GPIO_InitStruct.Pin = GPIO_PIN_5|GPIO_PIN_6;
  71              		.loc 1 176 3 view .LVU10
  72              		.loc 1 176 23 is_stmt 0 view .LVU11
  73 0036 6023     		movs	r3, #96
  74 0038 0193     		str	r3, [sp, #4]
 177:Core/Src/main.c ****   GPIO_InitStruct.Mode = GPIO_MODE_OUTPUT_PP;
  75              		.loc 1 177 3 is_stmt 1 view .LVU12
  76              		.loc 1 177 24 is_stmt 0 view .LVU13
  77 003a 0123     		movs	r3, #1
  78 003c 0293     		str	r3, [sp, #8]
 178:Core/Src/main.c ****   GPIO_InitStruct.Pull = GPIO_NOPULL;
  79              		.loc 1 178 3 is_stmt 1 view .LVU14
  80              		.loc 1 178 24 is_stmt 0 view .LVU15
  81 003e 0394     		str	r4, [sp, #12]
 179:Core/Src/main.c ****   GPIO_InitStruct.Speed = GPIO_SPEED_FREQ_LOW;
  82              		.loc 1 179 3 is_stmt 1 view .LVU16
  83              		.loc 1 179 25 is_stmt 0 view .LVU17
  84 0040 0494     		str	r4, [sp, #16]
 180:Core/Src/main.c ****   HAL_GPIO_Init(GPIOE, &GPIO_InitStruct);
  85              		.loc 1 180 3 is_stmt 1 view .LVU18
  86 0042 01A9     		add	r1, sp, #4
  87 0044 2846     		mov	r0, r5
  88 0046 FFF7FEFF 		bl	HAL_GPIO_Init
  89              	.LVL1:
 181:Core/Src/main.c **** 
 182:Core/Src/main.c **** }
  90              		.loc 1 182 1 is_stmt 0 view .LVU19
  91 004a 07B0     		add	sp, sp, #28
  92              	.LCFI2:
  93              		.cfi_def_cfa_offset 12
  94              		@ sp needed
  95 004c 30BD     		pop	{r4, r5, pc}
  96              	.L4:
  97 004e 00BF     		.align	2
  98              	.L3:
  99 0050 00440258 		.word	1476543488
 100 0054 00100258 		.word	1476530176
 101              		.cfi_endproc
 102              	.LFE146:
 104              		.section	.text.Error_Handler,"ax",%progbits
 105              		.align	1
ARM GAS  C:\Users\XC\AppData\Local\Temp\cckm9vZS.s 			page 6


 106              		.global	Error_Handler
 107              		.syntax unified
 108              		.thumb
 109              		.thumb_func
 110              		.fpu fpv5-d16
 112              	Error_Handler:
 113              	.LFB147:
 183:Core/Src/main.c **** 
 184:Core/Src/main.c **** /* USER CODE BEGIN 4 */
 185:Core/Src/main.c **** 
 186:Core/Src/main.c **** /* USER CODE END 4 */
 187:Core/Src/main.c **** 
 188:Core/Src/main.c **** /**
 189:Core/Src/main.c ****   * @brief  This function is executed in case of error occurrence.
 190:Core/Src/main.c ****   * @retval None
 191:Core/Src/main.c ****   */
 192:Core/Src/main.c **** void Error_Handler(void)
 193:Core/Src/main.c **** {
 114              		.loc 1 193 1 is_stmt 1 view -0
 115              		.cfi_startproc
 116              		@ Volatile: function does not return.
 117              		@ args = 0, pretend = 0, frame = 0
 118              		@ frame_needed = 0, uses_anonymous_args = 0
 119              		@ link register save eliminated.
 194:Core/Src/main.c ****   /* USER CODE BEGIN Error_Handler_Debug */
 195:Core/Src/main.c ****   /* User can add his own implementation to report the HAL error return state */
 196:Core/Src/main.c ****   __disable_irq();
 120              		.loc 1 196 3 view .LVU21
 121              	.LBB5:
 122              	.LBI5:
 123              		.file 2 "Drivers/CMSIS/Include/cmsis_gcc.h"
   1:Drivers/CMSIS/Include/cmsis_gcc.h **** /**************************************************************************//**
   2:Drivers/CMSIS/Include/cmsis_gcc.h ****  * @file     cmsis_gcc.h
   3:Drivers/CMSIS/Include/cmsis_gcc.h ****  * @brief    CMSIS compiler GCC header file
   4:Drivers/CMSIS/Include/cmsis_gcc.h ****  * @version  V5.2.0
   5:Drivers/CMSIS/Include/cmsis_gcc.h ****  * @date     08. May 2019
   6:Drivers/CMSIS/Include/cmsis_gcc.h ****  ******************************************************************************/
   7:Drivers/CMSIS/Include/cmsis_gcc.h **** /*
   8:Drivers/CMSIS/Include/cmsis_gcc.h ****  * Copyright (c) 2009-2019 Arm Limited. All rights reserved.
   9:Drivers/CMSIS/Include/cmsis_gcc.h ****  *
  10:Drivers/CMSIS/Include/cmsis_gcc.h ****  * SPDX-License-Identifier: Apache-2.0
  11:Drivers/CMSIS/Include/cmsis_gcc.h ****  *
  12:Drivers/CMSIS/Include/cmsis_gcc.h ****  * Licensed under the Apache License, Version 2.0 (the License); you may
  13:Drivers/CMSIS/Include/cmsis_gcc.h ****  * not use this file except in compliance with the License.
  14:Drivers/CMSIS/Include/cmsis_gcc.h ****  * You may obtain a copy of the License at
  15:Drivers/CMSIS/Include/cmsis_gcc.h ****  *
  16:Drivers/CMSIS/Include/cmsis_gcc.h ****  * www.apache.org/licenses/LICENSE-2.0
  17:Drivers/CMSIS/Include/cmsis_gcc.h ****  *
  18:Drivers/CMSIS/Include/cmsis_gcc.h ****  * Unless required by applicable law or agreed to in writing, software
  19:Drivers/CMSIS/Include/cmsis_gcc.h ****  * distributed under the License is distributed on an AS IS BASIS, WITHOUT
  20:Drivers/CMSIS/Include/cmsis_gcc.h ****  * WARRANTIES OR CONDITIONS OF ANY KIND, either express or implied.
  21:Drivers/CMSIS/Include/cmsis_gcc.h ****  * See the License for the specific language governing permissions and
  22:Drivers/CMSIS/Include/cmsis_gcc.h ****  * limitations under the License.
  23:Drivers/CMSIS/Include/cmsis_gcc.h ****  */
  24:Drivers/CMSIS/Include/cmsis_gcc.h **** 
  25:Drivers/CMSIS/Include/cmsis_gcc.h **** #ifndef __CMSIS_GCC_H
  26:Drivers/CMSIS/Include/cmsis_gcc.h **** #define __CMSIS_GCC_H
ARM GAS  C:\Users\XC\AppData\Local\Temp\cckm9vZS.s 			page 7


  27:Drivers/CMSIS/Include/cmsis_gcc.h **** 
  28:Drivers/CMSIS/Include/cmsis_gcc.h **** /* ignore some GCC warnings */
  29:Drivers/CMSIS/Include/cmsis_gcc.h **** #pragma GCC diagnostic push
  30:Drivers/CMSIS/Include/cmsis_gcc.h **** #pragma GCC diagnostic ignored "-Wsign-conversion"
  31:Drivers/CMSIS/Include/cmsis_gcc.h **** #pragma GCC diagnostic ignored "-Wconversion"
  32:Drivers/CMSIS/Include/cmsis_gcc.h **** #pragma GCC diagnostic ignored "-Wunused-parameter"
  33:Drivers/CMSIS/Include/cmsis_gcc.h **** 
  34:Drivers/CMSIS/Include/cmsis_gcc.h **** /* Fallback for __has_builtin */
  35:Drivers/CMSIS/Include/cmsis_gcc.h **** #ifndef __has_builtin
  36:Drivers/CMSIS/Include/cmsis_gcc.h ****   #define __has_builtin(x) (0)
  37:Drivers/CMSIS/Include/cmsis_gcc.h **** #endif
  38:Drivers/CMSIS/Include/cmsis_gcc.h **** 
  39:Drivers/CMSIS/Include/cmsis_gcc.h **** /* CMSIS compiler specific defines */
  40:Drivers/CMSIS/Include/cmsis_gcc.h **** #ifndef   __ASM
  41:Drivers/CMSIS/Include/cmsis_gcc.h ****   #define __ASM                                  __asm
  42:Drivers/CMSIS/Include/cmsis_gcc.h **** #endif
  43:Drivers/CMSIS/Include/cmsis_gcc.h **** #ifndef   __INLINE
  44:Drivers/CMSIS/Include/cmsis_gcc.h ****   #define __INLINE                               inline
  45:Drivers/CMSIS/Include/cmsis_gcc.h **** #endif
  46:Drivers/CMSIS/Include/cmsis_gcc.h **** #ifndef   __STATIC_INLINE
  47:Drivers/CMSIS/Include/cmsis_gcc.h ****   #define __STATIC_INLINE                        static inline
  48:Drivers/CMSIS/Include/cmsis_gcc.h **** #endif
  49:Drivers/CMSIS/Include/cmsis_gcc.h **** #ifndef   __STATIC_FORCEINLINE                 
  50:Drivers/CMSIS/Include/cmsis_gcc.h ****   #define __STATIC_FORCEINLINE                   __attribute__((always_inline)) static inline
  51:Drivers/CMSIS/Include/cmsis_gcc.h **** #endif                                           
  52:Drivers/CMSIS/Include/cmsis_gcc.h **** #ifndef   __NO_RETURN
  53:Drivers/CMSIS/Include/cmsis_gcc.h ****   #define __NO_RETURN                            __attribute__((__noreturn__))
  54:Drivers/CMSIS/Include/cmsis_gcc.h **** #endif
  55:Drivers/CMSIS/Include/cmsis_gcc.h **** #ifndef   __USED
  56:Drivers/CMSIS/Include/cmsis_gcc.h ****   #define __USED                                 __attribute__((used))
  57:Drivers/CMSIS/Include/cmsis_gcc.h **** #endif
  58:Drivers/CMSIS/Include/cmsis_gcc.h **** #ifndef   __WEAK
  59:Drivers/CMSIS/Include/cmsis_gcc.h ****   #define __WEAK                                 __attribute__((weak))
  60:Drivers/CMSIS/Include/cmsis_gcc.h **** #endif
  61:Drivers/CMSIS/Include/cmsis_gcc.h **** #ifndef   __PACKED
  62:Drivers/CMSIS/Include/cmsis_gcc.h ****   #define __PACKED                               __attribute__((packed, aligned(1)))
  63:Drivers/CMSIS/Include/cmsis_gcc.h **** #endif
  64:Drivers/CMSIS/Include/cmsis_gcc.h **** #ifndef   __PACKED_STRUCT
  65:Drivers/CMSIS/Include/cmsis_gcc.h ****   #define __PACKED_STRUCT                        struct __attribute__((packed, aligned(1)))
  66:Drivers/CMSIS/Include/cmsis_gcc.h **** #endif
  67:Drivers/CMSIS/Include/cmsis_gcc.h **** #ifndef   __PACKED_UNION
  68:Drivers/CMSIS/Include/cmsis_gcc.h ****   #define __PACKED_UNION                         union __attribute__((packed, aligned(1)))
  69:Drivers/CMSIS/Include/cmsis_gcc.h **** #endif
  70:Drivers/CMSIS/Include/cmsis_gcc.h **** #ifndef   __UNALIGNED_UINT32        /* deprecated */
  71:Drivers/CMSIS/Include/cmsis_gcc.h ****   #pragma GCC diagnostic push
  72:Drivers/CMSIS/Include/cmsis_gcc.h ****   #pragma GCC diagnostic ignored "-Wpacked"
  73:Drivers/CMSIS/Include/cmsis_gcc.h ****   #pragma GCC diagnostic ignored "-Wattributes"
  74:Drivers/CMSIS/Include/cmsis_gcc.h ****   struct __attribute__((packed)) T_UINT32 { uint32_t v; };
  75:Drivers/CMSIS/Include/cmsis_gcc.h ****   #pragma GCC diagnostic pop
  76:Drivers/CMSIS/Include/cmsis_gcc.h ****   #define __UNALIGNED_UINT32(x)                  (((struct T_UINT32 *)(x))->v)
  77:Drivers/CMSIS/Include/cmsis_gcc.h **** #endif
  78:Drivers/CMSIS/Include/cmsis_gcc.h **** #ifndef   __UNALIGNED_UINT16_WRITE
  79:Drivers/CMSIS/Include/cmsis_gcc.h ****   #pragma GCC diagnostic push
  80:Drivers/CMSIS/Include/cmsis_gcc.h ****   #pragma GCC diagnostic ignored "-Wpacked"
  81:Drivers/CMSIS/Include/cmsis_gcc.h ****   #pragma GCC diagnostic ignored "-Wattributes"
  82:Drivers/CMSIS/Include/cmsis_gcc.h ****   __PACKED_STRUCT T_UINT16_WRITE { uint16_t v; };
  83:Drivers/CMSIS/Include/cmsis_gcc.h ****   #pragma GCC diagnostic pop
ARM GAS  C:\Users\XC\AppData\Local\Temp\cckm9vZS.s 			page 8


  84:Drivers/CMSIS/Include/cmsis_gcc.h ****   #define __UNALIGNED_UINT16_WRITE(addr, val)    (void)((((struct T_UINT16_WRITE *)(void *)(addr))-
  85:Drivers/CMSIS/Include/cmsis_gcc.h **** #endif
  86:Drivers/CMSIS/Include/cmsis_gcc.h **** #ifndef   __UNALIGNED_UINT16_READ
  87:Drivers/CMSIS/Include/cmsis_gcc.h ****   #pragma GCC diagnostic push
  88:Drivers/CMSIS/Include/cmsis_gcc.h ****   #pragma GCC diagnostic ignored "-Wpacked"
  89:Drivers/CMSIS/Include/cmsis_gcc.h ****   #pragma GCC diagnostic ignored "-Wattributes"
  90:Drivers/CMSIS/Include/cmsis_gcc.h ****   __PACKED_STRUCT T_UINT16_READ { uint16_t v; };
  91:Drivers/CMSIS/Include/cmsis_gcc.h ****   #pragma GCC diagnostic pop
  92:Drivers/CMSIS/Include/cmsis_gcc.h ****   #define __UNALIGNED_UINT16_READ(addr)          (((const struct T_UINT16_READ *)(const void *)(add
  93:Drivers/CMSIS/Include/cmsis_gcc.h **** #endif
  94:Drivers/CMSIS/Include/cmsis_gcc.h **** #ifndef   __UNALIGNED_UINT32_WRITE
  95:Drivers/CMSIS/Include/cmsis_gcc.h ****   #pragma GCC diagnostic push
  96:Drivers/CMSIS/Include/cmsis_gcc.h ****   #pragma GCC diagnostic ignored "-Wpacked"
  97:Drivers/CMSIS/Include/cmsis_gcc.h ****   #pragma GCC diagnostic ignored "-Wattributes"
  98:Drivers/CMSIS/Include/cmsis_gcc.h ****   __PACKED_STRUCT T_UINT32_WRITE { uint32_t v; };
  99:Drivers/CMSIS/Include/cmsis_gcc.h ****   #pragma GCC diagnostic pop
 100:Drivers/CMSIS/Include/cmsis_gcc.h ****   #define __UNALIGNED_UINT32_WRITE(addr, val)    (void)((((struct T_UINT32_WRITE *)(void *)(addr))-
 101:Drivers/CMSIS/Include/cmsis_gcc.h **** #endif
 102:Drivers/CMSIS/Include/cmsis_gcc.h **** #ifndef   __UNALIGNED_UINT32_READ
 103:Drivers/CMSIS/Include/cmsis_gcc.h ****   #pragma GCC diagnostic push
 104:Drivers/CMSIS/Include/cmsis_gcc.h ****   #pragma GCC diagnostic ignored "-Wpacked"
 105:Drivers/CMSIS/Include/cmsis_gcc.h ****   #pragma GCC diagnostic ignored "-Wattributes"
 106:Drivers/CMSIS/Include/cmsis_gcc.h ****   __PACKED_STRUCT T_UINT32_READ { uint32_t v; };
 107:Drivers/CMSIS/Include/cmsis_gcc.h ****   #pragma GCC diagnostic pop
 108:Drivers/CMSIS/Include/cmsis_gcc.h ****   #define __UNALIGNED_UINT32_READ(addr)          (((const struct T_UINT32_READ *)(const void *)(add
 109:Drivers/CMSIS/Include/cmsis_gcc.h **** #endif
 110:Drivers/CMSIS/Include/cmsis_gcc.h **** #ifndef   __ALIGNED
 111:Drivers/CMSIS/Include/cmsis_gcc.h ****   #define __ALIGNED(x)                           __attribute__((aligned(x)))
 112:Drivers/CMSIS/Include/cmsis_gcc.h **** #endif
 113:Drivers/CMSIS/Include/cmsis_gcc.h **** #ifndef   __RESTRICT
 114:Drivers/CMSIS/Include/cmsis_gcc.h ****   #define __RESTRICT                             __restrict
 115:Drivers/CMSIS/Include/cmsis_gcc.h **** #endif
 116:Drivers/CMSIS/Include/cmsis_gcc.h **** #ifndef   __COMPILER_BARRIER
 117:Drivers/CMSIS/Include/cmsis_gcc.h ****   #define __COMPILER_BARRIER()                   __ASM volatile("":::"memory")
 118:Drivers/CMSIS/Include/cmsis_gcc.h **** #endif
 119:Drivers/CMSIS/Include/cmsis_gcc.h **** 
 120:Drivers/CMSIS/Include/cmsis_gcc.h **** /* #########################  Startup and Lowlevel Init  ######################## */
 121:Drivers/CMSIS/Include/cmsis_gcc.h **** 
 122:Drivers/CMSIS/Include/cmsis_gcc.h **** #ifndef __PROGRAM_START
 123:Drivers/CMSIS/Include/cmsis_gcc.h **** 
 124:Drivers/CMSIS/Include/cmsis_gcc.h **** /**
 125:Drivers/CMSIS/Include/cmsis_gcc.h ****   \brief   Initializes data and bss sections
 126:Drivers/CMSIS/Include/cmsis_gcc.h ****   \details This default implementations initialized all data and additional bss
 127:Drivers/CMSIS/Include/cmsis_gcc.h ****            sections relying on .copy.table and .zero.table specified properly
 128:Drivers/CMSIS/Include/cmsis_gcc.h ****            in the used linker script.
 129:Drivers/CMSIS/Include/cmsis_gcc.h ****   
 130:Drivers/CMSIS/Include/cmsis_gcc.h ****  */
 131:Drivers/CMSIS/Include/cmsis_gcc.h **** __STATIC_FORCEINLINE __NO_RETURN void __cmsis_start(void)
 132:Drivers/CMSIS/Include/cmsis_gcc.h **** {
 133:Drivers/CMSIS/Include/cmsis_gcc.h ****   extern void _start(void) __NO_RETURN;
 134:Drivers/CMSIS/Include/cmsis_gcc.h ****   
 135:Drivers/CMSIS/Include/cmsis_gcc.h ****   typedef struct {
 136:Drivers/CMSIS/Include/cmsis_gcc.h ****     uint32_t const* src;
 137:Drivers/CMSIS/Include/cmsis_gcc.h ****     uint32_t* dest;
 138:Drivers/CMSIS/Include/cmsis_gcc.h ****     uint32_t  wlen;
 139:Drivers/CMSIS/Include/cmsis_gcc.h ****   } __copy_table_t;
 140:Drivers/CMSIS/Include/cmsis_gcc.h ****   
ARM GAS  C:\Users\XC\AppData\Local\Temp\cckm9vZS.s 			page 9


 141:Drivers/CMSIS/Include/cmsis_gcc.h ****   typedef struct {
 142:Drivers/CMSIS/Include/cmsis_gcc.h ****     uint32_t* dest;
 143:Drivers/CMSIS/Include/cmsis_gcc.h ****     uint32_t  wlen;
 144:Drivers/CMSIS/Include/cmsis_gcc.h ****   } __zero_table_t;
 145:Drivers/CMSIS/Include/cmsis_gcc.h ****   
 146:Drivers/CMSIS/Include/cmsis_gcc.h ****   extern const __copy_table_t __copy_table_start__;
 147:Drivers/CMSIS/Include/cmsis_gcc.h ****   extern const __copy_table_t __copy_table_end__;
 148:Drivers/CMSIS/Include/cmsis_gcc.h ****   extern const __zero_table_t __zero_table_start__;
 149:Drivers/CMSIS/Include/cmsis_gcc.h ****   extern const __zero_table_t __zero_table_end__;
 150:Drivers/CMSIS/Include/cmsis_gcc.h **** 
 151:Drivers/CMSIS/Include/cmsis_gcc.h ****   for (__copy_table_t const* pTable = &__copy_table_start__; pTable < &__copy_table_end__; ++pTable
 152:Drivers/CMSIS/Include/cmsis_gcc.h ****     for(uint32_t i=0u; i<pTable->wlen; ++i) {
 153:Drivers/CMSIS/Include/cmsis_gcc.h ****       pTable->dest[i] = pTable->src[i];
 154:Drivers/CMSIS/Include/cmsis_gcc.h ****     }
 155:Drivers/CMSIS/Include/cmsis_gcc.h ****   }
 156:Drivers/CMSIS/Include/cmsis_gcc.h ****  
 157:Drivers/CMSIS/Include/cmsis_gcc.h ****   for (__zero_table_t const* pTable = &__zero_table_start__; pTable < &__zero_table_end__; ++pTable
 158:Drivers/CMSIS/Include/cmsis_gcc.h ****     for(uint32_t i=0u; i<pTable->wlen; ++i) {
 159:Drivers/CMSIS/Include/cmsis_gcc.h ****       pTable->dest[i] = 0u;
 160:Drivers/CMSIS/Include/cmsis_gcc.h ****     }
 161:Drivers/CMSIS/Include/cmsis_gcc.h ****   }
 162:Drivers/CMSIS/Include/cmsis_gcc.h ****  
 163:Drivers/CMSIS/Include/cmsis_gcc.h ****   _start();
 164:Drivers/CMSIS/Include/cmsis_gcc.h **** }
 165:Drivers/CMSIS/Include/cmsis_gcc.h ****   
 166:Drivers/CMSIS/Include/cmsis_gcc.h **** #define __PROGRAM_START           __cmsis_start
 167:Drivers/CMSIS/Include/cmsis_gcc.h **** #endif
 168:Drivers/CMSIS/Include/cmsis_gcc.h **** 
 169:Drivers/CMSIS/Include/cmsis_gcc.h **** #ifndef __INITIAL_SP
 170:Drivers/CMSIS/Include/cmsis_gcc.h **** #define __INITIAL_SP              __StackTop
 171:Drivers/CMSIS/Include/cmsis_gcc.h **** #endif
 172:Drivers/CMSIS/Include/cmsis_gcc.h **** 
 173:Drivers/CMSIS/Include/cmsis_gcc.h **** #ifndef __STACK_LIMIT
 174:Drivers/CMSIS/Include/cmsis_gcc.h **** #define __STACK_LIMIT             __StackLimit
 175:Drivers/CMSIS/Include/cmsis_gcc.h **** #endif
 176:Drivers/CMSIS/Include/cmsis_gcc.h **** 
 177:Drivers/CMSIS/Include/cmsis_gcc.h **** #ifndef __VECTOR_TABLE
 178:Drivers/CMSIS/Include/cmsis_gcc.h **** #define __VECTOR_TABLE            __Vectors
 179:Drivers/CMSIS/Include/cmsis_gcc.h **** #endif
 180:Drivers/CMSIS/Include/cmsis_gcc.h **** 
 181:Drivers/CMSIS/Include/cmsis_gcc.h **** #ifndef __VECTOR_TABLE_ATTRIBUTE
 182:Drivers/CMSIS/Include/cmsis_gcc.h **** #define __VECTOR_TABLE_ATTRIBUTE  __attribute((used, section(".vectors")))
 183:Drivers/CMSIS/Include/cmsis_gcc.h **** #endif
 184:Drivers/CMSIS/Include/cmsis_gcc.h **** 
 185:Drivers/CMSIS/Include/cmsis_gcc.h **** /* ###########################  Core Function Access  ########################### */
 186:Drivers/CMSIS/Include/cmsis_gcc.h **** /** \ingroup  CMSIS_Core_FunctionInterface
 187:Drivers/CMSIS/Include/cmsis_gcc.h ****     \defgroup CMSIS_Core_RegAccFunctions CMSIS Core Register Access Functions
 188:Drivers/CMSIS/Include/cmsis_gcc.h ****   @{
 189:Drivers/CMSIS/Include/cmsis_gcc.h ****  */
 190:Drivers/CMSIS/Include/cmsis_gcc.h **** 
 191:Drivers/CMSIS/Include/cmsis_gcc.h **** /**
 192:Drivers/CMSIS/Include/cmsis_gcc.h ****   \brief   Enable IRQ Interrupts
 193:Drivers/CMSIS/Include/cmsis_gcc.h ****   \details Enables IRQ interrupts by clearing the I-bit in the CPSR.
 194:Drivers/CMSIS/Include/cmsis_gcc.h ****            Can only be executed in Privileged modes.
 195:Drivers/CMSIS/Include/cmsis_gcc.h ****  */
 196:Drivers/CMSIS/Include/cmsis_gcc.h **** __STATIC_FORCEINLINE void __enable_irq(void)
 197:Drivers/CMSIS/Include/cmsis_gcc.h **** {
ARM GAS  C:\Users\XC\AppData\Local\Temp\cckm9vZS.s 			page 10


 198:Drivers/CMSIS/Include/cmsis_gcc.h ****   __ASM volatile ("cpsie i" : : : "memory");
 199:Drivers/CMSIS/Include/cmsis_gcc.h **** }
 200:Drivers/CMSIS/Include/cmsis_gcc.h **** 
 201:Drivers/CMSIS/Include/cmsis_gcc.h **** 
 202:Drivers/CMSIS/Include/cmsis_gcc.h **** /**
 203:Drivers/CMSIS/Include/cmsis_gcc.h ****   \brief   Disable IRQ Interrupts
 204:Drivers/CMSIS/Include/cmsis_gcc.h ****   \details Disables IRQ interrupts by setting the I-bit in the CPSR.
 205:Drivers/CMSIS/Include/cmsis_gcc.h ****            Can only be executed in Privileged modes.
 206:Drivers/CMSIS/Include/cmsis_gcc.h ****  */
 207:Drivers/CMSIS/Include/cmsis_gcc.h **** __STATIC_FORCEINLINE void __disable_irq(void)
 124              		.loc 2 207 27 view .LVU22
 125              	.LBB6:
 208:Drivers/CMSIS/Include/cmsis_gcc.h **** {
 209:Drivers/CMSIS/Include/cmsis_gcc.h ****   __ASM volatile ("cpsid i" : : : "memory");
 126              		.loc 2 209 3 view .LVU23
 127              		.syntax unified
 128              	@ 209 "Drivers/CMSIS/Include/cmsis_gcc.h" 1
 129 0000 72B6     		cpsid i
 130              	@ 0 "" 2
 131              		.thumb
 132              		.syntax unified
 133              	.L6:
 134              	.LBE6:
 135              	.LBE5:
 197:Core/Src/main.c ****   while (1)
 136              		.loc 1 197 3 discriminator 1 view .LVU24
 198:Core/Src/main.c ****   {
 199:Core/Src/main.c ****   }
 137              		.loc 1 199 3 discriminator 1 view .LVU25
 197:Core/Src/main.c ****   while (1)
 138              		.loc 1 197 9 discriminator 1 view .LVU26
 139 0002 FEE7     		b	.L6
 140              		.cfi_endproc
 141              	.LFE147:
 143              		.section	.text.SystemClock_Config,"ax",%progbits
 144              		.align	1
 145              		.global	SystemClock_Config
 146              		.syntax unified
 147              		.thumb
 148              		.thumb_func
 149              		.fpu fpv5-d16
 151              	SystemClock_Config:
 152              	.LFB145:
 109:Core/Src/main.c ****   RCC_OscInitTypeDef RCC_OscInitStruct = {0};
 153              		.loc 1 109 1 view -0
 154              		.cfi_startproc
 155              		@ args = 0, pretend = 0, frame = 112
 156              		@ frame_needed = 0, uses_anonymous_args = 0
 157 0000 00B5     		push	{lr}
 158              	.LCFI3:
 159              		.cfi_def_cfa_offset 4
 160              		.cfi_offset 14, -4
 161 0002 9DB0     		sub	sp, sp, #116
 162              	.LCFI4:
 163              		.cfi_def_cfa_offset 120
 110:Core/Src/main.c ****   RCC_ClkInitTypeDef RCC_ClkInitStruct = {0};
 164              		.loc 1 110 3 view .LVU28
ARM GAS  C:\Users\XC\AppData\Local\Temp\cckm9vZS.s 			page 11


 110:Core/Src/main.c ****   RCC_ClkInitTypeDef RCC_ClkInitStruct = {0};
 165              		.loc 1 110 22 is_stmt 0 view .LVU29
 166 0004 4C22     		movs	r2, #76
 167 0006 0021     		movs	r1, #0
 168 0008 09A8     		add	r0, sp, #36
 169 000a FFF7FEFF 		bl	memset
 170              	.LVL2:
 111:Core/Src/main.c **** 
 171              		.loc 1 111 3 is_stmt 1 view .LVU30
 111:Core/Src/main.c **** 
 172              		.loc 1 111 22 is_stmt 0 view .LVU31
 173 000e 2022     		movs	r2, #32
 174 0010 0021     		movs	r1, #0
 175 0012 01A8     		add	r0, sp, #4
 176 0014 FFF7FEFF 		bl	memset
 177              	.LVL3:
 115:Core/Src/main.c ****   /** Configure the main internal regulator output voltage
 178              		.loc 1 115 3 is_stmt 1 view .LVU32
 179 0018 0220     		movs	r0, #2
 180 001a FFF7FEFF 		bl	HAL_PWREx_ConfigSupply
 181              	.LVL4:
 118:Core/Src/main.c **** 
 182              		.loc 1 118 3 view .LVU33
 183              	.LBB7:
 118:Core/Src/main.c **** 
 184              		.loc 1 118 3 view .LVU34
 185 001e 0023     		movs	r3, #0
 186 0020 0093     		str	r3, [sp]
 118:Core/Src/main.c **** 
 187              		.loc 1 118 3 view .LVU35
 118:Core/Src/main.c **** 
 188              		.loc 1 118 3 view .LVU36
 189 0022 254B     		ldr	r3, .L14
 190 0024 DA6A     		ldr	r2, [r3, #44]
 191 0026 22F00102 		bic	r2, r2, #1
 192 002a DA62     		str	r2, [r3, #44]
 118:Core/Src/main.c **** 
 193              		.loc 1 118 3 view .LVU37
 194 002c DB6A     		ldr	r3, [r3, #44]
 195 002e 03F00103 		and	r3, r3, #1
 196 0032 0093     		str	r3, [sp]
 118:Core/Src/main.c **** 
 197              		.loc 1 118 3 view .LVU38
 198 0034 214B     		ldr	r3, .L14+4
 199 0036 9A69     		ldr	r2, [r3, #24]
 200 0038 42F44042 		orr	r2, r2, #49152
 201 003c 9A61     		str	r2, [r3, #24]
 118:Core/Src/main.c **** 
 202              		.loc 1 118 3 view .LVU39
 203 003e 9B69     		ldr	r3, [r3, #24]
 204 0040 03F44043 		and	r3, r3, #49152
 205 0044 0093     		str	r3, [sp]
 118:Core/Src/main.c **** 
 206              		.loc 1 118 3 view .LVU40
 207 0046 009B     		ldr	r3, [sp]
 208              	.LBE7:
 118:Core/Src/main.c **** 
ARM GAS  C:\Users\XC\AppData\Local\Temp\cckm9vZS.s 			page 12


 209              		.loc 1 118 3 view .LVU41
 120:Core/Src/main.c ****   /** Initializes the RCC Oscillators according to the specified parameters
 210              		.loc 1 120 3 view .LVU42
 211              	.L8:
 120:Core/Src/main.c ****   /** Initializes the RCC Oscillators according to the specified parameters
 212              		.loc 1 120 48 discriminator 1 view .LVU43
 120:Core/Src/main.c ****   /** Initializes the RCC Oscillators according to the specified parameters
 213              		.loc 1 120 8 discriminator 1 view .LVU44
 120:Core/Src/main.c ****   /** Initializes the RCC Oscillators according to the specified parameters
 214              		.loc 1 120 10 is_stmt 0 discriminator 1 view .LVU45
 215 0048 1C4B     		ldr	r3, .L14+4
 216 004a 9B69     		ldr	r3, [r3, #24]
 120:Core/Src/main.c ****   /** Initializes the RCC Oscillators according to the specified parameters
 217              		.loc 1 120 8 discriminator 1 view .LVU46
 218 004c 13F4005F 		tst	r3, #8192
 219 0050 FAD0     		beq	.L8
 124:Core/Src/main.c ****   RCC_OscInitStruct.HSIState = RCC_HSI_DIV1;
 220              		.loc 1 124 3 is_stmt 1 view .LVU47
 124:Core/Src/main.c ****   RCC_OscInitStruct.HSIState = RCC_HSI_DIV1;
 221              		.loc 1 124 36 is_stmt 0 view .LVU48
 222 0052 0223     		movs	r3, #2
 223 0054 0993     		str	r3, [sp, #36]
 125:Core/Src/main.c ****   RCC_OscInitStruct.HSICalibrationValue = RCC_HSICALIBRATION_DEFAULT;
 224              		.loc 1 125 3 is_stmt 1 view .LVU49
 125:Core/Src/main.c ****   RCC_OscInitStruct.HSICalibrationValue = RCC_HSICALIBRATION_DEFAULT;
 225              		.loc 1 125 30 is_stmt 0 view .LVU50
 226 0056 0122     		movs	r2, #1
 227 0058 0C92     		str	r2, [sp, #48]
 126:Core/Src/main.c ****   RCC_OscInitStruct.PLL.PLLState = RCC_PLL_ON;
 228              		.loc 1 126 3 is_stmt 1 view .LVU51
 126:Core/Src/main.c ****   RCC_OscInitStruct.PLL.PLLState = RCC_PLL_ON;
 229              		.loc 1 126 41 is_stmt 0 view .LVU52
 230 005a 4022     		movs	r2, #64
 231 005c 0D92     		str	r2, [sp, #52]
 127:Core/Src/main.c ****   RCC_OscInitStruct.PLL.PLLSource = RCC_PLLSOURCE_HSI;
 232              		.loc 1 127 3 is_stmt 1 view .LVU53
 127:Core/Src/main.c ****   RCC_OscInitStruct.PLL.PLLSource = RCC_PLLSOURCE_HSI;
 233              		.loc 1 127 34 is_stmt 0 view .LVU54
 234 005e 1293     		str	r3, [sp, #72]
 128:Core/Src/main.c ****   RCC_OscInitStruct.PLL.PLLM = 4;
 235              		.loc 1 128 3 is_stmt 1 view .LVU55
 128:Core/Src/main.c ****   RCC_OscInitStruct.PLL.PLLM = 4;
 236              		.loc 1 128 35 is_stmt 0 view .LVU56
 237 0060 0022     		movs	r2, #0
 238 0062 1392     		str	r2, [sp, #76]
 129:Core/Src/main.c ****   RCC_OscInitStruct.PLL.PLLN = 50;
 239              		.loc 1 129 3 is_stmt 1 view .LVU57
 129:Core/Src/main.c ****   RCC_OscInitStruct.PLL.PLLN = 50;
 240              		.loc 1 129 30 is_stmt 0 view .LVU58
 241 0064 0421     		movs	r1, #4
 242 0066 1491     		str	r1, [sp, #80]
 130:Core/Src/main.c ****   RCC_OscInitStruct.PLL.PLLP = 2;
 243              		.loc 1 130 3 is_stmt 1 view .LVU59
 130:Core/Src/main.c ****   RCC_OscInitStruct.PLL.PLLP = 2;
 244              		.loc 1 130 30 is_stmt 0 view .LVU60
 245 0068 3221     		movs	r1, #50
 246 006a 1591     		str	r1, [sp, #84]
ARM GAS  C:\Users\XC\AppData\Local\Temp\cckm9vZS.s 			page 13


 131:Core/Src/main.c ****   RCC_OscInitStruct.PLL.PLLQ = 2;
 247              		.loc 1 131 3 is_stmt 1 view .LVU61
 131:Core/Src/main.c ****   RCC_OscInitStruct.PLL.PLLQ = 2;
 248              		.loc 1 131 30 is_stmt 0 view .LVU62
 249 006c 1693     		str	r3, [sp, #88]
 132:Core/Src/main.c ****   RCC_OscInitStruct.PLL.PLLR = 2;
 250              		.loc 1 132 3 is_stmt 1 view .LVU63
 132:Core/Src/main.c ****   RCC_OscInitStruct.PLL.PLLR = 2;
 251              		.loc 1 132 30 is_stmt 0 view .LVU64
 252 006e 1793     		str	r3, [sp, #92]
 133:Core/Src/main.c ****   RCC_OscInitStruct.PLL.PLLRGE = RCC_PLL1VCIRANGE_3;
 253              		.loc 1 133 3 is_stmt 1 view .LVU65
 133:Core/Src/main.c ****   RCC_OscInitStruct.PLL.PLLRGE = RCC_PLL1VCIRANGE_3;
 254              		.loc 1 133 30 is_stmt 0 view .LVU66
 255 0070 1893     		str	r3, [sp, #96]
 134:Core/Src/main.c ****   RCC_OscInitStruct.PLL.PLLVCOSEL = RCC_PLL1VCOWIDE;
 256              		.loc 1 134 3 is_stmt 1 view .LVU67
 134:Core/Src/main.c ****   RCC_OscInitStruct.PLL.PLLVCOSEL = RCC_PLL1VCOWIDE;
 257              		.loc 1 134 32 is_stmt 0 view .LVU68
 258 0072 0C23     		movs	r3, #12
 259 0074 1993     		str	r3, [sp, #100]
 135:Core/Src/main.c ****   RCC_OscInitStruct.PLL.PLLFRACN = 0;
 260              		.loc 1 135 3 is_stmt 1 view .LVU69
 135:Core/Src/main.c ****   RCC_OscInitStruct.PLL.PLLFRACN = 0;
 261              		.loc 1 135 35 is_stmt 0 view .LVU70
 262 0076 1A92     		str	r2, [sp, #104]
 136:Core/Src/main.c ****   if (HAL_RCC_OscConfig(&RCC_OscInitStruct) != HAL_OK)
 263              		.loc 1 136 3 is_stmt 1 view .LVU71
 136:Core/Src/main.c ****   if (HAL_RCC_OscConfig(&RCC_OscInitStruct) != HAL_OK)
 264              		.loc 1 136 34 is_stmt 0 view .LVU72
 265 0078 1B92     		str	r2, [sp, #108]
 137:Core/Src/main.c ****   {
 266              		.loc 1 137 3 is_stmt 1 view .LVU73
 137:Core/Src/main.c ****   {
 267              		.loc 1 137 7 is_stmt 0 view .LVU74
 268 007a 09A8     		add	r0, sp, #36
 269 007c FFF7FEFF 		bl	HAL_RCC_OscConfig
 270              	.LVL5:
 137:Core/Src/main.c ****   {
 271              		.loc 1 137 6 view .LVU75
 272 0080 B0B9     		cbnz	r0, .L12
 143:Core/Src/main.c ****                               |RCC_CLOCKTYPE_PCLK1|RCC_CLOCKTYPE_PCLK2
 273              		.loc 1 143 3 is_stmt 1 view .LVU76
 143:Core/Src/main.c ****                               |RCC_CLOCKTYPE_PCLK1|RCC_CLOCKTYPE_PCLK2
 274              		.loc 1 143 31 is_stmt 0 view .LVU77
 275 0082 3F23     		movs	r3, #63
 276 0084 0193     		str	r3, [sp, #4]
 146:Core/Src/main.c ****   RCC_ClkInitStruct.SYSCLKDivider = RCC_SYSCLK_DIV1;
 277              		.loc 1 146 3 is_stmt 1 view .LVU78
 146:Core/Src/main.c ****   RCC_ClkInitStruct.SYSCLKDivider = RCC_SYSCLK_DIV1;
 278              		.loc 1 146 34 is_stmt 0 view .LVU79
 279 0086 0323     		movs	r3, #3
 280 0088 0293     		str	r3, [sp, #8]
 147:Core/Src/main.c ****   RCC_ClkInitStruct.AHBCLKDivider = RCC_HCLK_DIV2;
 281              		.loc 1 147 3 is_stmt 1 view .LVU80
 147:Core/Src/main.c ****   RCC_ClkInitStruct.AHBCLKDivider = RCC_HCLK_DIV2;
 282              		.loc 1 147 35 is_stmt 0 view .LVU81
ARM GAS  C:\Users\XC\AppData\Local\Temp\cckm9vZS.s 			page 14


 283 008a 0023     		movs	r3, #0
 284 008c 0393     		str	r3, [sp, #12]
 148:Core/Src/main.c ****   RCC_ClkInitStruct.APB3CLKDivider = RCC_APB3_DIV2;
 285              		.loc 1 148 3 is_stmt 1 view .LVU82
 148:Core/Src/main.c ****   RCC_ClkInitStruct.APB3CLKDivider = RCC_APB3_DIV2;
 286              		.loc 1 148 35 is_stmt 0 view .LVU83
 287 008e 0823     		movs	r3, #8
 288 0090 0493     		str	r3, [sp, #16]
 149:Core/Src/main.c ****   RCC_ClkInitStruct.APB1CLKDivider = RCC_APB1_DIV2;
 289              		.loc 1 149 3 is_stmt 1 view .LVU84
 149:Core/Src/main.c ****   RCC_ClkInitStruct.APB1CLKDivider = RCC_APB1_DIV2;
 290              		.loc 1 149 36 is_stmt 0 view .LVU85
 291 0092 4023     		movs	r3, #64
 292 0094 0593     		str	r3, [sp, #20]
 150:Core/Src/main.c ****   RCC_ClkInitStruct.APB2CLKDivider = RCC_APB2_DIV2;
 293              		.loc 1 150 3 is_stmt 1 view .LVU86
 150:Core/Src/main.c ****   RCC_ClkInitStruct.APB2CLKDivider = RCC_APB2_DIV2;
 294              		.loc 1 150 36 is_stmt 0 view .LVU87
 295 0096 0693     		str	r3, [sp, #24]
 151:Core/Src/main.c ****   RCC_ClkInitStruct.APB4CLKDivider = RCC_APB4_DIV2;
 296              		.loc 1 151 3 is_stmt 1 view .LVU88
 151:Core/Src/main.c ****   RCC_ClkInitStruct.APB4CLKDivider = RCC_APB4_DIV2;
 297              		.loc 1 151 36 is_stmt 0 view .LVU89
 298 0098 4FF48062 		mov	r2, #1024
 299 009c 0792     		str	r2, [sp, #28]
 152:Core/Src/main.c **** 
 300              		.loc 1 152 3 is_stmt 1 view .LVU90
 152:Core/Src/main.c **** 
 301              		.loc 1 152 36 is_stmt 0 view .LVU91
 302 009e 0893     		str	r3, [sp, #32]
 154:Core/Src/main.c ****   {
 303              		.loc 1 154 3 is_stmt 1 view .LVU92
 154:Core/Src/main.c ****   {
 304              		.loc 1 154 7 is_stmt 0 view .LVU93
 305 00a0 0221     		movs	r1, #2
 306 00a2 01A8     		add	r0, sp, #4
 307 00a4 FFF7FEFF 		bl	HAL_RCC_ClockConfig
 308              	.LVL6:
 154:Core/Src/main.c ****   {
 309              		.loc 1 154 6 view .LVU94
 310 00a8 20B9     		cbnz	r0, .L13
 158:Core/Src/main.c **** 
 311              		.loc 1 158 1 view .LVU95
 312 00aa 1DB0     		add	sp, sp, #116
 313              	.LCFI5:
 314              		.cfi_remember_state
 315              		.cfi_def_cfa_offset 4
 316              		@ sp needed
 317 00ac 5DF804FB 		ldr	pc, [sp], #4
 318              	.L12:
 319              	.LCFI6:
 320              		.cfi_restore_state
 139:Core/Src/main.c ****   }
 321              		.loc 1 139 5 is_stmt 1 view .LVU96
 322 00b0 FFF7FEFF 		bl	Error_Handler
 323              	.LVL7:
 324              	.L13:
ARM GAS  C:\Users\XC\AppData\Local\Temp\cckm9vZS.s 			page 15


 156:Core/Src/main.c ****   }
 325              		.loc 1 156 5 view .LVU97
 326 00b4 FFF7FEFF 		bl	Error_Handler
 327              	.LVL8:
 328              	.L15:
 329              		.align	2
 330              	.L14:
 331 00b8 00040058 		.word	1476396032
 332 00bc 00480258 		.word	1476544512
 333              		.cfi_endproc
 334              	.LFE145:
 336              		.section	.text.main,"ax",%progbits
 337              		.align	1
 338              		.global	main
 339              		.syntax unified
 340              		.thumb
 341              		.thumb_func
 342              		.fpu fpv5-d16
 344              	main:
 345              	.LFB144:
  65:Core/Src/main.c ****   /* USER CODE BEGIN 1 */
 346              		.loc 1 65 1 view -0
 347              		.cfi_startproc
 348              		@ Volatile: function does not return.
 349              		@ args = 0, pretend = 0, frame = 0
 350              		@ frame_needed = 0, uses_anonymous_args = 0
 351 0000 08B5     		push	{r3, lr}
 352              	.LCFI7:
 353              		.cfi_def_cfa_offset 8
 354              		.cfi_offset 3, -8
 355              		.cfi_offset 14, -4
  73:Core/Src/main.c **** 
 356              		.loc 1 73 3 view .LVU99
 357 0002 FFF7FEFF 		bl	HAL_Init
 358              	.LVL9:
  80:Core/Src/main.c **** 
 359              		.loc 1 80 3 view .LVU100
 360 0006 FFF7FEFF 		bl	SystemClock_Config
 361              	.LVL10:
  87:Core/Src/main.c ****   /* USER CODE BEGIN 2 */
 362              		.loc 1 87 3 view .LVU101
 363 000a FFF7FEFF 		bl	MX_GPIO_Init
 364              	.LVL11:
 365              	.L17:
  94:Core/Src/main.c ****   {
 366              		.loc 1 94 3 discriminator 1 view .LVU102
  97:Core/Src/main.c **** 	HAL_GPIO_TogglePin(GPIOE,GPIO_PIN_6);
 367              		.loc 1 97 5 discriminator 1 view .LVU103
 368 000e 4FF4FA70 		mov	r0, #500
 369 0012 FFF7FEFF 		bl	HAL_Delay
 370              	.LVL12:
  98:Core/Src/main.c ****     /* USER CODE BEGIN 3 */
 371              		.loc 1 98 2 discriminator 1 view .LVU104
 372 0016 4021     		movs	r1, #64
 373 0018 0148     		ldr	r0, .L19
 374 001a FFF7FEFF 		bl	HAL_GPIO_TogglePin
 375              	.LVL13:
ARM GAS  C:\Users\XC\AppData\Local\Temp\cckm9vZS.s 			page 16


  94:Core/Src/main.c ****   {
 376              		.loc 1 94 9 discriminator 1 view .LVU105
 377 001e F6E7     		b	.L17
 378              	.L20:
 379              		.align	2
 380              	.L19:
 381 0020 00100258 		.word	1476530176
 382              		.cfi_endproc
 383              	.LFE144:
 385              		.text
 386              	.Letext0:
 387              		.file 3 "d:\\10 2020-q4-major\\arm-none-eabi\\include\\machine\\_default_types.h"
 388              		.file 4 "d:\\10 2020-q4-major\\arm-none-eabi\\include\\sys\\_stdint.h"
 389              		.file 5 "Drivers/CMSIS/Device/ST/STM32H7xx/Include/stm32h743xx.h"
 390              		.file 6 "Drivers/STM32H7xx_HAL_Driver/Inc/stm32h7xx_hal_rcc.h"
 391              		.file 7 "Drivers/STM32H7xx_HAL_Driver/Inc/stm32h7xx_hal_gpio.h"
 392              		.file 8 "Drivers/STM32H7xx_HAL_Driver/Inc/stm32h7xx_hal_def.h"
 393              		.file 9 "Drivers/STM32H7xx_HAL_Driver/Inc/stm32h7xx_hal_pwr_ex.h"
 394              		.file 10 "Drivers/STM32H7xx_HAL_Driver/Inc/stm32h7xx_hal.h"
 395              		.file 11 "<built-in>"
ARM GAS  C:\Users\XC\AppData\Local\Temp\cckm9vZS.s 			page 17

